target datalayout = "e-m:e-p270:32:32-p271:32:32-p272:64:64-i64:64-i128:128-f80:128-n8:16:32:64-S128"
target triple = "x86_64-pc-linux-gnu"

%"class.duckdb_re2::DFA::StateSaver" = type { ptr, ptr, i32, i32, i8, ptr }

; Function Attrs: mustprogress nounwind uwtable
define hidden void @_ZN10duckdb_re23DFA10StateSaverD2Ev(ptr noundef nonnull align 8 dereferenceable(40) %0) unnamed_addr #0 align 2 {
  %2 = alloca ptr, align 8
  store ptr %0, ptr %2, align 8, !tbaa !190
  %3 = load ptr, ptr %2, align 8
  %4 = getelementptr inbounds nuw %"class.duckdb_re2::DFA::StateSaver", ptr %3, i32 0, i32 4
  %5 = load i8, ptr %4, align 8, !tbaa !197, !range !7, !noundef !8
  %6 = trunc i8 %5 to i1
  br i1 %6, label %13, label %7

7:                                                ; preds = %1
  %8 = getelementptr inbounds nuw %"class.duckdb_re2::DFA::StateSaver", ptr %3, i32 0, i32 1
  %9 = load ptr, ptr %8, align 8, !tbaa !194
  %10 = icmp eq ptr %9, null
  br i1 %10, label %12, label %11

11:                                               ; preds = %7
  call void @_ZdaPv(ptr noundef %9) #19
  br label %12

12:                                               ; preds = %11, %7
  br label %13

13:                                               ; preds = %12, %1
  ret void
}