; Function Attrs: mustprogress nounwind uwtable
define hidden void @_ZN10duckdb_re23DFA10StateSaverD2Ev(ptr noundef nonnull readonly align 8 captures(none) dereferenceable(40) %0) unnamed_addr #6 align 2 {
  %2 = getelementptr inbounds nuw i8, ptr %0, i64 24
  %3 = load i8, ptr %2, align 8, !tbaa !164, !range !117, !noundef !118
  %4 = trunc nuw i8 %3 to i1
  br i1 %4, label %10, label %5

5:                                                ; preds = %1
  %6 = getelementptr inbounds nuw i8, ptr %0, i64 8
  %7 = load ptr, ptr %6, align 8, !tbaa !168
  %8 = icmp eq ptr %7, null
  br i1 %8, label %10, label %9

9:                                                ; preds = %5
  tail call void @_ZdaPv(ptr noundef nonnull %7) #23
  br label %10

10:                                               ; preds = %5, %9, %1
  ret void
}